target datalayout = "e-m:e-p270:32:32-p271:32:32-p272:64:64-i64:64-i128:128-f80:128-n8:16:32:64-S128"
target triple = "x86_64-unknown-linux-gnu"

%"struct.google::SiteFlag" = type { ptr, ptr, i64, ptr }
%"class.google::LogMessageVoidify" = type { i8 }
%"class.google::LogMessage" = type { ptr, ptr, %"struct.google::LogMessageTime" }
%"struct.google::LogMessageTime" = type { %struct.tm, i64, i32, i64 }
%struct.tm = type { i32, i32, i32, i32, i32, i32, i32, i32, i32, i64, ptr }
%"class.proxygen::Window" = type { i32, i32 }

@.str = private unnamed_addr constant [124 x i8] c"generated/home/dtcxzyw/WorkSpace/Projects/compilers/llvm-opt-benchmark/bench/proxygen/proxygen/proxygen/lib/http/Window.cpp\00", align 1
@_ZN3fLI7FLAGS_vE = external global i32, align 4
@_ZZN8proxygen6Window4freeEjE8vlocal__ = internal global %"struct.google::SiteFlag" zeroinitializer, align 8
@.str.9 = private unnamed_addr constant [45 x i8] c"Cannot expand window by more than 2^31 - 1. \00", align 1
@.str.10 = private unnamed_addr constant [24 x i8] c"Attempted increment of \00", align 1
@_ZZN8proxygen6Window4freeEjE8vlocal___0 = internal global %"struct.google::SiteFlag" zeroinitializer, align 8
@.str.11 = private unnamed_addr constant [42 x i8] c"Underflow detected. Window change failed.\00", align 1
@_ZZN8proxygen6Window4freeEjE8vlocal___1 = internal global %"struct.google::SiteFlag" zeroinitializer, align 8
@.str.12 = private unnamed_addr constant [48 x i8] c"Window exceeded 2^31 - 1. Window change failed.\00", align 1

; Function Attrs: mustprogress nounwind uwtable
define linkonce_odr noundef i32 @_ZNSt14numeric_limitsIiE3minEv() #1 comdat align 2 {
entry:
  ret i32 -2147483648
}

; Function Attrs: mustprogress nounwind uwtable
define linkonce_odr void @_ZN6google17LogMessageVoidifyanERSo(ptr noundef nonnull align 1 dereferenceable(1) %this, ptr noundef nonnull align 8 dereferenceable(8) %0) #1 comdat align 2 {
entry:
  %this.addr = alloca ptr, align 8
  %.addr = alloca ptr, align 8
  store ptr %this, ptr %this.addr, align 8
  store ptr %0, ptr %.addr, align 8
  ret void
}

; Function Attrs: mustprogress nounwind uwtable
define linkonce_odr void @_ZN6google17LogMessageVoidifyC2Ev(ptr noundef nonnull align 1 dereferenceable(1) %this) unnamed_addr #1 comdat align 2 {
entry:
  %this.addr = alloca ptr, align 8
  store ptr %this, ptr %this.addr, align 8
  ret void
}

; Function Attrs: mustprogress nounwind uwtable
define linkonce_odr noundef i32 @_ZNSt14numeric_limitsIiE3maxEv() #1 comdat align 2 {
entry:
  ret i32 2147483647
}

; Function Attrs: mustprogress uwtable
define noundef zeroext i1 @_ZN8proxygen6Window4freeEj(ptr noundef nonnull align 4 dereferenceable(8) %this, i32 noundef %amount) #0 align 2 personality ptr @__gxx_personality_v0 {
entry:
  %retval = alloca i1, align 1
  %this.addr = alloca ptr, align 8
  %amount.addr = alloca i32, align 4
  %verbose_level__ = alloca i32, align 4
  %tmp = alloca i8, align 1
  %ref.tmp = alloca %"class.google::LogMessageVoidify", align 1
  %ref.tmp7 = alloca %"class.google::LogMessage", align 8
  %cleanup.cond = alloca i1, align 1
  %exn.slot = alloca ptr, align 8
  %ehselector.slot = alloca i32, align 4
  %limit = alloca i32, align 4
  %verbose_level__25 = alloca i32, align 4
  %tmp26 = alloca i8, align 1
  %ref.tmp38 = alloca %"class.google::LogMessageVoidify", align 1
  %ref.tmp39 = alloca %"class.google::LogMessage", align 8
  %cleanup.cond40 = alloca i1, align 1
  %newOutstanding = alloca i32, align 4
  %verbose_level__60 = alloca i32, align 4
  %tmp61 = alloca i8, align 1
  %ref.tmp73 = alloca %"class.google::LogMessageVoidify", align 1
  %ref.tmp74 = alloca %"class.google::LogMessage", align 8
  %cleanup.cond75 = alloca i1, align 1
  store ptr %this, ptr %this.addr, align 8
  store i32 %amount, ptr %amount.addr, align 4
  %this1 = load ptr, ptr %this.addr, align 8
  %0 = load i32, ptr %amount.addr, align 4
  %call = call noundef i32 @_ZNSt14numeric_limitsIiE3maxEv() #6
  %cmp = icmp ugt i32 %0, %call
  br i1 %cmp, label %if.then, label %if.end

if.then:                                          ; preds = %entry
  store i32 3, ptr %verbose_level__, align 4
  %1 = load ptr, ptr @_ZZN8proxygen6Window4freeEjE8vlocal__, align 8
  %cmp2 = icmp eq ptr %1, null
  store i1 false, ptr %cleanup.cond, align 1
  br i1 %cmp2, label %cond.true, label %cond.false

cond.true:                                        ; preds = %if.then
  %2 = load i32, ptr %verbose_level__, align 4
  %call3 = call noundef zeroext i1 @_ZN6google11InitVLOG3__EPNS_8SiteFlagEPiPKci(ptr noundef @_ZZN8proxygen6Window4freeEjE8vlocal__, ptr noundef @_ZN3fLI7FLAGS_vE, ptr noundef @.str, i32 noundef %2)
  br label %cond.end

cond.false:                                       ; preds = %if.then
  %3 = load ptr, ptr @_ZZN8proxygen6Window4freeEjE8vlocal__, align 8
  %4 = load i32, ptr %3, align 4
  %5 = load i32, ptr %verbose_level__, align 4
  %cmp4 = icmp sge i32 %4, %5
  br label %cond.end

cond.end:                                         ; preds = %cond.false, %cond.true
  %cond = phi i1 [ %call3, %cond.true ], [ %cmp4, %cond.false ]
  %frombool = zext i1 %cond to i8
  store i8 %frombool, ptr %tmp, align 1
  %6 = load i8, ptr %tmp, align 1
  %tobool = trunc i8 %6 to i1
  br i1 %tobool, label %cond.false6, label %cond.true5

cond.true5:                                       ; preds = %cond.end
  br label %cond.end16

cond.false6:                                      ; preds = %cond.end
  call void @_ZN6google17LogMessageVoidifyC2Ev(ptr noundef nonnull align 1 dereferenceable(1) %ref.tmp)
  call void @_ZN6google10LogMessageC1EPKci(ptr noundef nonnull align 8 dereferenceable(96) %ref.tmp7, ptr noundef @.str, i32 noundef 62)
  store i1 true, ptr %cleanup.cond, align 1
  %call8 = invoke noundef nonnull align 8 dereferenceable(8) ptr @_ZN6google10LogMessage6streamEv(ptr noundef nonnull align 8 dereferenceable(96) %ref.tmp7)
          to label %invoke.cont unwind label %lpad

invoke.cont:                                      ; preds = %cond.false6
  %call10 = invoke noundef nonnull align 8 dereferenceable(8) ptr @_ZStlsISt11char_traitsIcEERSt13basic_ostreamIcT_ES5_PKc(ptr noundef nonnull align 8 dereferenceable(8) %call8, ptr noundef @.str.9)
          to label %invoke.cont9 unwind label %lpad

invoke.cont9:                                     ; preds = %invoke.cont
  %call12 = invoke noundef nonnull align 8 dereferenceable(8) ptr @_ZStlsISt11char_traitsIcEERSt13basic_ostreamIcT_ES5_PKc(ptr noundef nonnull align 8 dereferenceable(8) %call10, ptr noundef @.str.10)
          to label %invoke.cont11 unwind label %lpad

invoke.cont11:                                    ; preds = %invoke.cont9
  %7 = load i32, ptr %amount.addr, align 4
  %call14 = invoke noundef nonnull align 8 dereferenceable(8) ptr @_ZNSolsEj(ptr noundef nonnull align 8 dereferenceable(8) %call12, i32 noundef %7)
          to label %invoke.cont13 unwind label %lpad

invoke.cont13:                                    ; preds = %invoke.cont11
  invoke void @_ZN6google17LogMessageVoidifyanERSo(ptr noundef nonnull align 1 dereferenceable(1) %ref.tmp, ptr noundef nonnull align 8 dereferenceable(8) %call14)
          to label %invoke.cont15 unwind label %lpad

invoke.cont15:                                    ; preds = %invoke.cont13
  br label %cond.end16

cond.end16:                                       ; preds = %invoke.cont15, %cond.true5
  %cleanup.is_active = load i1, ptr %cleanup.cond, align 1
  br i1 %cleanup.is_active, label %cleanup.action, label %cleanup.done

cleanup.action:                                   ; preds = %cond.end16
  call void @_ZN6google10LogMessageD1Ev(ptr noundef nonnull align 8 dereferenceable(96) %ref.tmp7) #6
  br label %cleanup.done

cleanup.done:                                     ; preds = %cleanup.action, %cond.end16
  store i1 false, ptr %retval, align 1
  br label %return

lpad:                                             ; preds = %invoke.cont13, %invoke.cont11, %invoke.cont9, %invoke.cont, %cond.false6
  %8 = landingpad { ptr, i32 }
          cleanup
  %9 = extractvalue { ptr, i32 } %8, 0
  store ptr %9, ptr %exn.slot, align 8
  %10 = extractvalue { ptr, i32 } %8, 1
  store i32 %10, ptr %ehselector.slot, align 4
  %cleanup.is_active17 = load i1, ptr %cleanup.cond, align 1
  br i1 %cleanup.is_active17, label %cleanup.action18, label %cleanup.done19

cleanup.action18:                                 ; preds = %lpad
  call void @_ZN6google10LogMessageD1Ev(ptr noundef nonnull align 8 dereferenceable(96) %ref.tmp7) #6
  br label %cleanup.done19

cleanup.done19:                                   ; preds = %cleanup.action18, %lpad
  br label %eh.resume

if.end:                                           ; preds = %entry
  %call20 = call noundef i32 @_ZNSt14numeric_limitsIiE3minEv() #6
  %11 = load i32, ptr %amount.addr, align 4
  %add = add nsw i32 %call20, %11
  store i32 %add, ptr %limit, align 4
  %outstanding_ = getelementptr inbounds %"class.proxygen::Window", ptr %this1, i32 0, i32 0
  %12 = load i32, ptr %outstanding_, align 4
  %cmp21 = icmp slt i32 %12, 0
  br i1 %cmp21, label %land.lhs.true, label %if.end54

land.lhs.true:                                    ; preds = %if.end
  %13 = load i32, ptr %limit, align 4
  %outstanding_22 = getelementptr inbounds %"class.proxygen::Window", ptr %this1, i32 0, i32 0
  %14 = load i32, ptr %outstanding_22, align 4
  %cmp23 = icmp sgt i32 %13, %14
  br i1 %cmp23, label %if.then24, label %if.end54

if.then24:                                        ; preds = %land.lhs.true
  store i32 3, ptr %verbose_level__25, align 4
  %15 = load ptr, ptr @_ZZN8proxygen6Window4freeEjE8vlocal___0, align 8
  %cmp27 = icmp eq ptr %15, null
  store i1 false, ptr %cleanup.cond40, align 1
  br i1 %cmp27, label %cond.true28, label %cond.false30

cond.true28:                                      ; preds = %if.then24
  %16 = load i32, ptr %verbose_level__25, align 4
  %call29 = call noundef zeroext i1 @_ZN6google11InitVLOG3__EPNS_8SiteFlagEPiPKci(ptr noundef @_ZZN8proxygen6Window4freeEjE8vlocal___0, ptr noundef @_ZN3fLI7FLAGS_vE, ptr noundef @.str, i32 noundef %16)
  br label %cond.end32

cond.false30:                                     ; preds = %if.then24
  %17 = load ptr, ptr @_ZZN8proxygen6Window4freeEjE8vlocal___0, align 8
  %18 = load i32, ptr %17, align 4
  %19 = load i32, ptr %verbose_level__25, align 4
  %cmp31 = icmp sge i32 %18, %19
  br label %cond.end32

cond.end32:                                       ; preds = %cond.false30, %cond.true28
  %cond33 = phi i1 [ %call29, %cond.true28 ], [ %cmp31, %cond.false30 ]
  %frombool34 = zext i1 %cond33 to i8
  store i8 %frombool34, ptr %tmp26, align 1
  %20 = load i8, ptr %tmp26, align 1
  %tobool35 = trunc i8 %20 to i1
  br i1 %tobool35, label %cond.false37, label %cond.true36

cond.true36:                                      ; preds = %cond.end32
  br label %cond.end47

cond.false37:                                     ; preds = %cond.end32
  call void @_ZN6google17LogMessageVoidifyC2Ev(ptr noundef nonnull align 1 dereferenceable(1) %ref.tmp38)
  call void @_ZN6google10LogMessageC1EPKci(ptr noundef nonnull align 8 dereferenceable(96) %ref.tmp39, ptr noundef @.str, i32 noundef 69)
  store i1 true, ptr %cleanup.cond40, align 1
  %call43 = invoke noundef nonnull align 8 dereferenceable(8) ptr @_ZN6google10LogMessage6streamEv(ptr noundef nonnull align 8 dereferenceable(96) %ref.tmp39)
          to label %invoke.cont42 unwind label %lpad41

invoke.cont42:                                    ; preds = %cond.false37
  %call45 = invoke noundef nonnull align 8 dereferenceable(8) ptr @_ZStlsISt11char_traitsIcEERSt13basic_ostreamIcT_ES5_PKc(ptr noundef nonnull align 8 dereferenceable(8) %call43, ptr noundef @.str.11)
          to label %invoke.cont44 unwind label %lpad41

invoke.cont44:                                    ; preds = %invoke.cont42
  invoke void @_ZN6google17LogMessageVoidifyanERSo(ptr noundef nonnull align 1 dereferenceable(1) %ref.tmp38, ptr noundef nonnull align 8 dereferenceable(8) %call45)
          to label %invoke.cont46 unwind label %lpad41

invoke.cont46:                                    ; preds = %invoke.cont44
  br label %cond.end47

cond.end47:                                       ; preds = %invoke.cont46, %cond.true36
  %cleanup.is_active48 = load i1, ptr %cleanup.cond40, align 1
  br i1 %cleanup.is_active48, label %cleanup.action49, label %cleanup.done50

cleanup.action49:                                 ; preds = %cond.end47
  call void @_ZN6google10LogMessageD1Ev(ptr noundef nonnull align 8 dereferenceable(96) %ref.tmp39) #6
  br label %cleanup.done50

cleanup.done50:                                   ; preds = %cleanup.action49, %cond.end47
  store i1 false, ptr %retval, align 1
  br label %return

lpad41:                                           ; preds = %invoke.cont44, %invoke.cont42, %cond.false37
  %21 = landingpad { ptr, i32 }
          cleanup
  %22 = extractvalue { ptr, i32 } %21, 0
  store ptr %22, ptr %exn.slot, align 8
  %23 = extractvalue { ptr, i32 } %21, 1
  store i32 %23, ptr %ehselector.slot, align 4
  %cleanup.is_active51 = load i1, ptr %cleanup.cond40, align 1
  br i1 %cleanup.is_active51, label %cleanup.action52, label %cleanup.done53

cleanup.action52:                                 ; preds = %lpad41
  call void @_ZN6google10LogMessageD1Ev(ptr noundef nonnull align 8 dereferenceable(96) %ref.tmp39) #6
  br label %cleanup.done53

cleanup.done53:                                   ; preds = %cleanup.action52, %lpad41
  br label %eh.resume

if.end54:                                         ; preds = %land.lhs.true, %if.end
  %outstanding_55 = getelementptr inbounds %"class.proxygen::Window", ptr %this1, i32 0, i32 0
  %24 = load i32, ptr %outstanding_55, align 4
  %25 = load i32, ptr %amount.addr, align 4
  %sub = sub i32 %24, %25
  store i32 %sub, ptr %newOutstanding, align 4
  %26 = load i32, ptr %newOutstanding, align 4
  %capacity_ = getelementptr inbounds %"class.proxygen::Window", ptr %this1, i32 0, i32 1
  %27 = load i32, ptr %capacity_, align 4
  %call56 = call noundef i32 @_ZNSt14numeric_limitsIiE3maxEv() #6
  %sub57 = sub nsw i32 %27, %call56
  %cmp58 = icmp slt i32 %26, %sub57
  br i1 %cmp58, label %if.then59, label %if.end89

if.then59:                                        ; preds = %if.end54
  store i32 3, ptr %verbose_level__60, align 4
  %28 = load ptr, ptr @_ZZN8proxygen6Window4freeEjE8vlocal___1, align 8
  %cmp62 = icmp eq ptr %28, null
  store i1 false, ptr %cleanup.cond75, align 1
  br i1 %cmp62, label %cond.true63, label %cond.false65

cond.true63:                                      ; preds = %if.then59
  %29 = load i32, ptr %verbose_level__60, align 4
  %call64 = call noundef zeroext i1 @_ZN6google11InitVLOG3__EPNS_8SiteFlagEPiPKci(ptr noundef @_ZZN8proxygen6Window4freeEjE8vlocal___1, ptr noundef @_ZN3fLI7FLAGS_vE, ptr noundef @.str, i32 noundef %29)
  br label %cond.end67

cond.false65:                                     ; preds = %if.then59
  %30 = load ptr, ptr @_ZZN8proxygen6Window4freeEjE8vlocal___1, align 8
  %31 = load i32, ptr %30, align 4
  %32 = load i32, ptr %verbose_level__60, align 4
  %cmp66 = icmp sge i32 %31, %32
  br label %cond.end67

cond.end67:                                       ; preds = %cond.false65, %cond.true63
  %cond68 = phi i1 [ %call64, %cond.true63 ], [ %cmp66, %cond.false65 ]
  %frombool69 = zext i1 %cond68 to i8
  store i8 %frombool69, ptr %tmp61, align 1
  %33 = load i8, ptr %tmp61, align 1
  %tobool70 = trunc i8 %33 to i1
  br i1 %tobool70, label %cond.false72, label %cond.true71

cond.true71:                                      ; preds = %cond.end67
  br label %cond.end82

cond.false72:                                     ; preds = %cond.end67
  call void @_ZN6google17LogMessageVoidifyC2Ev(ptr noundef nonnull align 1 dereferenceable(1) %ref.tmp73)
  call void @_ZN6google10LogMessageC1EPKci(ptr noundef nonnull align 8 dereferenceable(96) %ref.tmp74, ptr noundef @.str, i32 noundef 74)
  store i1 true, ptr %cleanup.cond75, align 1
  %call78 = invoke noundef nonnull align 8 dereferenceable(8) ptr @_ZN6google10LogMessage6streamEv(ptr noundef nonnull align 8 dereferenceable(96) %ref.tmp74)
          to label %invoke.cont77 unwind label %lpad76

invoke.cont77:                                    ; preds = %cond.false72
  %call80 = invoke noundef nonnull align 8 dereferenceable(8) ptr @_ZStlsISt11char_traitsIcEERSt13basic_ostreamIcT_ES5_PKc(ptr noundef nonnull align 8 dereferenceable(8) %call78, ptr noundef @.str.12)
          to label %invoke.cont79 unwind label %lpad76

invoke.cont79:                                    ; preds = %invoke.cont77
  invoke void @_ZN6google17LogMessageVoidifyanERSo(ptr noundef nonnull align 1 dereferenceable(1) %ref.tmp73, ptr noundef nonnull align 8 dereferenceable(8) %call80)
          to label %invoke.cont81 unwind label %lpad76

invoke.cont81:                                    ; preds = %invoke.cont79
  br label %cond.end82

cond.end82:                                       ; preds = %invoke.cont81, %cond.true71
  %cleanup.is_active83 = load i1, ptr %cleanup.cond75, align 1
  br i1 %cleanup.is_active83, label %cleanup.action84, label %cleanup.done85

cleanup.action84:                                 ; preds = %cond.end82
  call void @_ZN6google10LogMessageD1Ev(ptr noundef nonnull align 8 dereferenceable(96) %ref.tmp74) #6
  br label %cleanup.done85

cleanup.done85:                                   ; preds = %cleanup.action84, %cond.end82
  store i1 false, ptr %retval, align 1
  br label %return

lpad76:                                           ; preds = %invoke.cont79, %invoke.cont77, %cond.false72
  %34 = landingpad { ptr, i32 }
          cleanup
  %35 = extractvalue { ptr, i32 } %34, 0
  store ptr %35, ptr %exn.slot, align 8
  %36 = extractvalue { ptr, i32 } %34, 1
  store i32 %36, ptr %ehselector.slot, align 4
  %cleanup.is_active86 = load i1, ptr %cleanup.cond75, align 1
  br i1 %cleanup.is_active86, label %cleanup.action87, label %cleanup.done88

cleanup.action87:                                 ; preds = %lpad76
  call void @_ZN6google10LogMessageD1Ev(ptr noundef nonnull align 8 dereferenceable(96) %ref.tmp74) #6
  br label %cleanup.done88

cleanup.done88:                                   ; preds = %cleanup.action87, %lpad76
  br label %eh.resume

if.end89:                                         ; preds = %if.end54
  %37 = load i32, ptr %newOutstanding, align 4
  %outstanding_90 = getelementptr inbounds %"class.proxygen::Window", ptr %this1, i32 0, i32 0
  store i32 %37, ptr %outstanding_90, align 4
  store i1 true, ptr %retval, align 1
  br label %return

return:                                           ; preds = %if.end89, %cleanup.done85, %cleanup.done50, %cleanup.done
  %38 = load i1, ptr %retval, align 1
  ret i1 %38

eh.resume:                                        ; preds = %cleanup.done88, %cleanup.done53, %cleanup.done19
  %exn = load ptr, ptr %exn.slot, align 8
  %sel = load i32, ptr %ehselector.slot, align 4
  %lpad.val = insertvalue { ptr, i32 } poison, ptr %exn, 0
  %lpad.val91 = insertvalue { ptr, i32 } %lpad.val, i32 %sel, 1
  resume { ptr, i32 } %lpad.val91
}