; Function Attrs: mustprogress uwtable
define noundef zeroext i1 @_ZN8proxygen6Window4freeEj(ptr noundef nonnull align 4 captures(none) dereferenceable(8) %this, i32 noundef %amount) local_unnamed_addr #0 align 2 personality ptr @__gxx_personality_v0 {
entry:
  %ref.tmp7 = alloca %"class.google::LogMessage", align 8
  %ref.tmp39 = alloca %"class.google::LogMessage", align 8
  %ref.tmp74 = alloca %"class.google::LogMessage", align 8
  %cmp = icmp slt i32 %amount, 0
  br i1 %cmp, label %if.then, label %if.end

if.then:                                          ; preds = %entry
  %0 = load ptr, ptr @_ZZN8proxygen6Window4freeEjE8vlocal__, align 8
  %cmp2 = icmp eq ptr %0, null
  br i1 %cmp2, label %cond.true, label %cond.end

cond.true:                                        ; preds = %if.then
  %call3 = tail call noundef zeroext i1 @_ZN6google11InitVLOG3__EPNS_8SiteFlagEPiPKci(ptr noundef nonnull @_ZZN8proxygen6Window4freeEjE8vlocal__, ptr noundef nonnull @_ZN3fLI7FLAGS_vE, ptr noundef nonnull @.str, i32 noundef 3)
  br i1 %call3, label %cond.false6, label %return

cond.end:                                         ; preds = %if.then
  %1 = load i32, ptr %0, align 4
  %cmp4 = icmp sgt i32 %1, 2
  br i1 %cmp4, label %cond.false6, label %return

cond.false6:                                      ; preds = %cond.true, %cond.end
  call void @_ZN6google10LogMessageC1EPKci(ptr noundef nonnull align 8 dereferenceable(96) %ref.tmp7, ptr noundef nonnull @.str, i32 noundef 62)
  %call8 = invoke noundef nonnull align 8 dereferenceable(8) ptr @_ZN6google10LogMessage6streamEv(ptr noundef nonnull align 8 dereferenceable(96) %ref.tmp7)
          to label %invoke.cont unwind label %lpad

invoke.cont:                                      ; preds = %cond.false6
  %call10 = invoke noundef nonnull align 8 dereferenceable(8) ptr @_ZStlsISt11char_traitsIcEERSt13basic_ostreamIcT_ES5_PKc(ptr noundef nonnull align 8 dereferenceable(8) %call8, ptr noundef nonnull @.str.9)
          to label %invoke.cont9 unwind label %lpad

invoke.cont9:                                     ; preds = %invoke.cont
  %call12 = invoke noundef nonnull align 8 dereferenceable(8) ptr @_ZStlsISt11char_traitsIcEERSt13basic_ostreamIcT_ES5_PKc(ptr noundef nonnull align 8 dereferenceable(8) %call10, ptr noundef nonnull @.str.10)
          to label %invoke.cont11 unwind label %lpad

invoke.cont11:                                    ; preds = %invoke.cont9
  %call14 = invoke noundef nonnull align 8 dereferenceable(8) ptr @_ZNSolsEj(ptr noundef nonnull align 8 dereferenceable(8) %call12, i32 noundef %amount)
          to label %cleanup.action unwind label %lpad

cleanup.action:                                   ; preds = %invoke.cont11
  call void @_ZN6google10LogMessageD1Ev(ptr noundef nonnull align 8 dereferenceable(96) %ref.tmp7) #7
  br label %return

lpad:                                             ; preds = %invoke.cont11, %invoke.cont9, %invoke.cont, %cond.false6
  %2 = landingpad { ptr, i32 }
          cleanup
  br label %eh.resume

if.end:                                           ; preds = %entry
  %3 = load i32, ptr %this, align 4
  %cmp21 = icmp slt i32 %3, 0
  %add = or disjoint i32 %amount, -2147483648
  %cmp23 = icmp sgt i32 %add, %3
  %or.cond = select i1 %cmp21, i1 %cmp23, i1 false
  br i1 %or.cond, label %if.then24, label %if.end54

if.then24:                                        ; preds = %if.end
  %4 = load ptr, ptr @_ZZN8proxygen6Window4freeEjE8vlocal___0, align 8
  %cmp27 = icmp eq ptr %4, null
  br i1 %cmp27, label %cond.true28, label %cond.end32

cond.true28:                                      ; preds = %if.then24
  %call29 = tail call noundef zeroext i1 @_ZN6google11InitVLOG3__EPNS_8SiteFlagEPiPKci(ptr noundef nonnull @_ZZN8proxygen6Window4freeEjE8vlocal___0, ptr noundef nonnull @_ZN3fLI7FLAGS_vE, ptr noundef nonnull @.str, i32 noundef 3)
  br i1 %call29, label %cond.false37, label %return

cond.end32:                                       ; preds = %if.then24
  %5 = load i32, ptr %4, align 4
  %cmp31 = icmp sgt i32 %5, 2
  br i1 %cmp31, label %cond.false37, label %return

cond.false37:                                     ; preds = %cond.true28, %cond.end32
  call void @_ZN6google10LogMessageC1EPKci(ptr noundef nonnull align 8 dereferenceable(96) %ref.tmp39, ptr noundef nonnull @.str, i32 noundef 69)
  %call43 = invoke noundef nonnull align 8 dereferenceable(8) ptr @_ZN6google10LogMessage6streamEv(ptr noundef nonnull align 8 dereferenceable(96) %ref.tmp39)
          to label %invoke.cont42 unwind label %lpad41

invoke.cont42:                                    ; preds = %cond.false37
  %call45 = invoke noundef nonnull align 8 dereferenceable(8) ptr @_ZStlsISt11char_traitsIcEERSt13basic_ostreamIcT_ES5_PKc(ptr noundef nonnull align 8 dereferenceable(8) %call43, ptr noundef nonnull @.str.11)
          to label %cleanup.action49 unwind label %lpad41

cleanup.action49:                                 ; preds = %invoke.cont42
  call void @_ZN6google10LogMessageD1Ev(ptr noundef nonnull align 8 dereferenceable(96) %ref.tmp39) #7
  br label %return

lpad41:                                           ; preds = %invoke.cont42, %cond.false37
  %6 = landingpad { ptr, i32 }
          cleanup
  br label %eh.resume

if.end54:                                         ; preds = %if.end
  %sub = sub i32 %3, %amount
  %capacity_ = getelementptr inbounds nuw i8, ptr %this, i64 4
  %7 = load i32, ptr %capacity_, align 4
  %sub57 = add nsw i32 %7, -2147483647
  %cmp58 = icmp slt i32 %sub, %sub57
  br i1 %cmp58, label %if.then59, label %if.end89

if.then59:                                        ; preds = %if.end54
  %8 = load ptr, ptr @_ZZN8proxygen6Window4freeEjE8vlocal___1, align 8
  %cmp62 = icmp eq ptr %8, null
  br i1 %cmp62, label %cond.true63, label %cond.end67

cond.true63:                                      ; preds = %if.then59
  %call64 = tail call noundef zeroext i1 @_ZN6google11InitVLOG3__EPNS_8SiteFlagEPiPKci(ptr noundef nonnull @_ZZN8proxygen6Window4freeEjE8vlocal___1, ptr noundef nonnull @_ZN3fLI7FLAGS_vE, ptr noundef nonnull @.str, i32 noundef 3)
  br i1 %call64, label %cond.false72, label %return

cond.end67:                                       ; preds = %if.then59
  %9 = load i32, ptr %8, align 4
  %cmp66 = icmp sgt i32 %9, 2
  br i1 %cmp66, label %cond.false72, label %return

cond.false72:                                     ; preds = %cond.true63, %cond.end67
  call void @_ZN6google10LogMessageC1EPKci(ptr noundef nonnull align 8 dereferenceable(96) %ref.tmp74, ptr noundef nonnull @.str, i32 noundef 74)
  %call78 = invoke noundef nonnull align 8 dereferenceable(8) ptr @_ZN6google10LogMessage6streamEv(ptr noundef nonnull align 8 dereferenceable(96) %ref.tmp74)
          to label %invoke.cont77 unwind label %lpad76

invoke.cont77:                                    ; preds = %cond.false72
  %call80 = invoke noundef nonnull align 8 dereferenceable(8) ptr @_ZStlsISt11char_traitsIcEERSt13basic_ostreamIcT_ES5_PKc(ptr noundef nonnull align 8 dereferenceable(8) %call78, ptr noundef nonnull @.str.12)
          to label %cleanup.action84 unwind label %lpad76

cleanup.action84:                                 ; preds = %invoke.cont77
  call void @_ZN6google10LogMessageD1Ev(ptr noundef nonnull align 8 dereferenceable(96) %ref.tmp74) #7
  br label %return

lpad76:                                           ; preds = %invoke.cont77, %cond.false72
  %10 = landingpad { ptr, i32 }
          cleanup
  br label %eh.resume

if.end89:                                         ; preds = %if.end54
  store i32 %sub, ptr %this, align 4
  br label %return

return:                                           ; preds = %cond.true63, %cond.true28, %cond.true, %cleanup.action84, %cond.end67, %cleanup.action49, %cond.end32, %cleanup.action, %cond.end, %if.end89
  %retval.0 = phi i1 [ true, %if.end89 ], [ false, %cond.end ], [ false, %cleanup.action ], [ false, %cond.end32 ], [ false, %cleanup.action49 ], [ false, %cond.end67 ], [ false, %cleanup.action84 ], [ false, %cond.true ], [ false, %cond.true28 ], [ false, %cond.true63 ]
  ret i1 %retval.0

eh.resume:                                        ; preds = %lpad76, %lpad41, %lpad
  %ref.tmp74.sink = phi ptr [ %ref.tmp74, %lpad76 ], [ %ref.tmp39, %lpad41 ], [ %ref.tmp7, %lpad ]
  %.pn = phi { ptr, i32 } [ %10, %lpad76 ], [ %6, %lpad41 ], [ %2, %lpad ]
  call void @_ZN6google10LogMessageD1Ev(ptr noundef nonnull align 8 dereferenceable(96) %ref.tmp74.sink) #7
  resume { ptr, i32 } %.pn
}